target datalayout = "e-m:e-p270:32:32-p271:32:32-p272:64:64-i64:64-i128:128-f80:128-n8:16:32:64-S128"
target triple = "x86_64-pc-linux-gnu"

%struct.HashState = type { %struct.PlanState, ptr, ptr, ptr, i32, ptr, ptr, ptr }
%struct.PlanState = type { i32, ptr, ptr, ptr, ptr, ptr, ptr, ptr, ptr, ptr, ptr, ptr, ptr, ptr, ptr, ptr, ptr, ptr, i8, ptr, ptr, ptr, ptr, ptr, i8, i8, i8, i8, i8, i8, i8, i8 }
%struct.Plan = type { i32, i32, double, double, double, i32, i8, i8, i8, i32, ptr, ptr, ptr, ptr, ptr, ptr, ptr }
%struct.SharedHashInfo = type { i32, [0 x %struct.HashInstrumentation] }
%struct.HashInstrumentation = type { i32, i32, i32, i32, i64 }
%struct.ParallelWorkerContext = type { ptr, ptr }

@ParallelWorkerNumber = external global i32, align 4

; Function Attrs: nounwind uwtable
define dso_local void @ExecHashInitializeWorker(ptr noundef %0, ptr noundef %1) #0 {
  %3 = alloca ptr, align 8
  %4 = alloca ptr, align 8
  %5 = alloca ptr, align 8
  %6 = alloca i32, align 4
  store ptr %0, ptr %3, align 8
  store ptr %1, ptr %4, align 8
  call void @llvm.lifetime.start.p0(i64 8, ptr %5) #9
  %7 = load ptr, ptr %3, align 8
  %8 = getelementptr inbounds nuw %struct.HashState, ptr %7, i32 0, i32 0
  %9 = getelementptr inbounds nuw %struct.PlanState, ptr %8, i32 0, i32 5
  %10 = load ptr, ptr %9, align 8
  %11 = icmp ne ptr %10, null
  br i1 %11, label %13, label %12

12:                                               ; preds = %2
  store i32 1, ptr %6, align 4
  br label %32

13:                                               ; preds = %2
  %14 = load ptr, ptr %4, align 8
  %15 = getelementptr inbounds nuw %struct.ParallelWorkerContext, ptr %14, i32 0, i32 1
  %16 = load ptr, ptr %15, align 8
  %17 = load ptr, ptr %3, align 8
  %18 = getelementptr inbounds nuw %struct.HashState, ptr %17, i32 0, i32 0
  %19 = getelementptr inbounds nuw %struct.PlanState, ptr %18, i32 0, i32 1
  %20 = load ptr, ptr %19, align 8
  %21 = getelementptr inbounds nuw %struct.Plan, ptr %20, i32 0, i32 9
  %22 = load i32, ptr %21, align 8
  %23 = sext i32 %22 to i64
  %24 = call ptr @shm_toc_lookup(ptr noundef %16, i64 noundef %23, i1 noundef zeroext false)
  store ptr %24, ptr %5, align 8
  %25 = load ptr, ptr %5, align 8
  %26 = getelementptr inbounds nuw %struct.SharedHashInfo, ptr %25, i32 0, i32 1
  %27 = load i32, ptr @ParallelWorkerNumber, align 4
  %28 = sext i32 %27 to i64
  %29 = getelementptr inbounds [0 x %struct.HashInstrumentation], ptr %26, i64 0, i64 %28
  %30 = load ptr, ptr %3, align 8
  %31 = getelementptr inbounds nuw %struct.HashState, ptr %30, i32 0, i32 6
  store ptr %29, ptr %31, align 8
  store i32 0, ptr %6, align 4
  br label %32

32:                                               ; preds = %13, %12
  call void @llvm.lifetime.end.p0(i64 8, ptr %5) #9
  %33 = load i32, ptr %6, align 4
  switch i32 %33, label %35 [
    i32 0, label %34
    i32 1, label %34
  ]

34:                                               ; preds = %32, %32
  ret void

35:                                               ; preds = %32
  unreachable
}