; Function Attrs: nounwind uwtable
define dso_local void @ExecHashInitializeWorker(ptr noundef captures(none) %0, ptr noundef readonly captures(none) %1) local_unnamed_addr #0 {
  %3 = getelementptr inbounds nuw i8, ptr %0, i64 40
  %4 = load ptr, ptr %3, align 8
  %.not = icmp eq ptr %4, null
  br i1 %.not, label %19, label %5

5:                                                ; preds = %2
  %6 = getelementptr inbounds nuw i8, ptr %1, i64 8
  %7 = load ptr, ptr %6, align 8
  %8 = getelementptr inbounds nuw i8, ptr %0, i64 8
  %9 = load ptr, ptr %8, align 8
  %10 = getelementptr inbounds nuw i8, ptr %9, i64 40
  %11 = load i32, ptr %10, align 8
  %12 = sext i32 %11 to i64
  %13 = tail call ptr @shm_toc_lookup(ptr noundef %7, i64 noundef %12, i1 noundef zeroext false) #16
  %14 = getelementptr inbounds nuw i8, ptr %13, i64 8
  %15 = load i32, ptr @ParallelWorkerNumber, align 4
  %16 = sext i32 %15 to i64
  %17 = getelementptr inbounds [0 x %struct.HashInstrumentation], ptr %14, i64 0, i64 %16
  %18 = getelementptr inbounds nuw i8, ptr %0, i64 240
  store ptr %17, ptr %18, align 8
  br label %19

19:                                               ; preds = %2, %5
  ret void
}